target datalayout = "e-m:e-p270:32:32-p271:32:32-p272:64:64-i64:64-i128:128-f80:128-n8:16:32:64-S128"
target triple = "x86_64-pc-linux-gnu"

%struct.AVCodecContext = type { ptr, i32, i32, ptr, i32, i32, ptr, ptr, ptr, i64, i32, i32, ptr, i32, %struct.AVRational, %struct.AVRational, %struct.AVRational, i32, i32, i32, i32, i32, %struct.AVRational, i32, i32, i32, i32, i32, i32, i32, i32, i32, i32, i32, ptr, ptr, i32, float, float, float, float, float, float, float, float, float, i32, i32, i32, i32, i32, i32, i32, i32, i32, i32, i32, i32, ptr, ptr, ptr, i32, i32, i32, i32, i32, i32, i32, i32, i32, i32, %struct.AVChannelLayout, i32, i32, i32, i32, i32, i32, i32, i32, ptr, i32, i32, i32, float, float, i32, i32, i32, i32, i32, ptr, i64, i64, float, float, i32, i32, ptr, ptr, i32, i32, i32, i32, i32, ptr, ptr, ptr, ptr, i32, i32, [8 x i64], i32, i32, i32, i32, i32, i32, i32, ptr, ptr, i32, i32, i32, i32, i32, i32, i32, i32, i32, i32, ptr, ptr, i32, i32, ptr, ptr, ptr, ptr, i32, i32, i64, i32, i32, i64, ptr, i64, ptr, i32, ptr, i32 }
%struct.AVRational = type { i32, i32 }
%struct.AVChannelLayout = type { i32, i32, %union.anon.0, ptr }
%union.anon.0 = type { i64 }
%struct.CDGraphicsContext = type { ptr, i32, i32, [16 x i8], i32 }

; Function Attrs: cold nounwind optsize uwtable
define internal i32 @cdg_decode_init(ptr noundef %0) #0 {
  %2 = alloca i32, align 4
  %3 = alloca ptr, align 8
  %4 = alloca ptr, align 8
  %5 = alloca i32, align 4
  %6 = alloca i32, align 4
  store ptr %0, ptr %3, align 8, !tbaa !4
  call void @llvm.lifetime.start.p0(i64 8, ptr %4) #8
  %7 = load ptr, ptr %3, align 8, !tbaa !4
  %8 = getelementptr inbounds nuw %struct.AVCodecContext, ptr %7, i32 0, i32 6
  %9 = load ptr, ptr %8, align 8, !tbaa !9
  store ptr %9, ptr %4, align 8, !tbaa !29
  %10 = call ptr @av_frame_alloc()
  %11 = load ptr, ptr %4, align 8, !tbaa !29
  %12 = getelementptr inbounds nuw %struct.CDGraphicsContext, ptr %11, i32 0, i32 0
  store ptr %10, ptr %12, align 8, !tbaa !31
  %13 = load ptr, ptr %4, align 8, !tbaa !29
  %14 = getelementptr inbounds nuw %struct.CDGraphicsContext, ptr %13, i32 0, i32 0
  %15 = load ptr, ptr %14, align 8, !tbaa !31
  %16 = icmp ne ptr %15, null
  br i1 %16, label %18, label %17

17:                                               ; preds = %1
  store i32 -12, ptr %2, align 4
  store i32 1, ptr %5, align 4
  br label %37

18:                                               ; preds = %1
  call void @llvm.lifetime.start.p0(i64 4, ptr %6) #8
  store i32 0, ptr %6, align 4, !tbaa !34
  br label %19

19:                                               ; preds = %29, %18
  %20 = load i32, ptr %6, align 4, !tbaa !34
  %21 = icmp slt i32 %20, 16
  br i1 %21, label %23, label %22

22:                                               ; preds = %19
  store i32 2, ptr %5, align 4
  call void @llvm.lifetime.end.p0(i64 4, ptr %6) #8
  br label %32

23:                                               ; preds = %19
  %24 = load ptr, ptr %4, align 8, !tbaa !29
  %25 = getelementptr inbounds nuw %struct.CDGraphicsContext, ptr %24, i32 0, i32 3
  %26 = load i32, ptr %6, align 4, !tbaa !34
  %27 = sext i32 %26 to i64
  %28 = getelementptr inbounds [16 x i8], ptr %25, i64 0, i64 %27
  store i8 -1, ptr %28, align 1, !tbaa !35
  br label %29

29:                                               ; preds = %23
  %30 = load i32, ptr %6, align 4, !tbaa !34
  %31 = add nsw i32 %30, 1
  store i32 %31, ptr %6, align 4, !tbaa !34
  br label %19, !llvm.loop !36

32:                                               ; preds = %22
  %33 = load ptr, ptr %3, align 8, !tbaa !4
  %34 = getelementptr inbounds nuw %struct.AVCodecContext, ptr %33, i32 0, i32 23
  store i32 11, ptr %34, align 8, !tbaa !38
  %35 = load ptr, ptr %3, align 8, !tbaa !4
  %36 = call i32 @ff_set_dimensions(ptr noundef %35, i32 noundef 300, i32 noundef 216)
  store i32 %36, ptr %2, align 4
  store i32 1, ptr %5, align 4
  br label %37

37:                                               ; preds = %32, %17
  call void @llvm.lifetime.end.p0(i64 8, ptr %4) #8
  %38 = load i32, ptr %2, align 4
  ret i32 %38
}