; Function Attrs: cold nounwind optsize uwtable
define internal i32 @cdg_decode_init(ptr noundef %0) #0 {
  %2 = getelementptr inbounds nuw i8, ptr %0, i64 32
  %3 = load ptr, ptr %2, align 8, !tbaa !4
  %4 = tail call ptr @av_frame_alloc() #8
  store ptr %4, ptr %3, align 8, !tbaa !27
  %.not = icmp eq ptr %4, null
  br i1 %.not, label %8, label %.preheader

.preheader:                                       ; preds = %1
  %5 = getelementptr inbounds nuw i8, ptr %3, i64 16
  tail call void @llvm.memset.p0.i64(ptr noundef nonnull align 1 dereferenceable(16) %5, i8 -1, i64 16, i1 false), !tbaa !30
  %6 = getelementptr inbounds nuw i8, ptr %0, i64 136
  store i32 11, ptr %6, align 8, !tbaa !31
  %7 = tail call i32 @ff_set_dimensions(ptr noundef nonnull %0, i32 noundef 300, i32 noundef 216) #8
  br label %8

8:                                                ; preds = %1, %.preheader
  %.09 = phi i32 [ %7, %.preheader ], [ -12, %1 ]
  ret i32 %.09
}